((lp0
(lp1
(S'it'
p2
S'PRP'
p3
tp4
a(S'is'
p5
S'VBZ'
p6
tp7
a(S'warm'
p8
S'JJ'
p9
tp10
a(S'here'
p11
S'RB'
p12
tp13
aa(lp14
(S'it'
p15
S'PRP'
p16
tp17
a(S'is'
p18
S'VBZ'
p19
tp20
a(S'cool'
p21
S'JJ'
p22
tp23
a(S'here'
p24
S'RB'
p25
tp26
aa(lp27
(S'it'
p28
S'PRP'
p29
tp30
a(S'is'
p31
S'VBZ'
p32
tp33
a(S'hot'
p34
S'JJ'
p35
tp36
aa(lp37
(S'it'
p38
S'PRP'
p39
tp40
a(S'is'
p41
S'VBZ'
p42
tp43
a(S'cold'
p44
S'JJ'
p45
tp46
aa(lp47
(S'i'
p48
S'NN'
p49
tp50
a(S'am'
p51
S'VBP'
p52
tp53
a(S'boiling'
p54
S'VBG'
p55
tp56
aa(lp57
(g48
S'NN'
p58
tp59
a(S'am'
p60
S'VBP'
p61
tp62
a(S'freezing'
p63
S'VBG'
p64
tp65
aa(lp66
(g48
S'NN'
p67
tp68
a(S'am'
p69
S'VBP'
p70
tp71
a(S'cooked'
p72
S'VBN'
p73
tp74
aa(lp75
(g48
S'NN'
p76
tp77
a(S'am'
p78
S'VBP'
p79
tp80
a(S'frozen'
p81
S'JJ'
p82
tp83
aa(lp84
(g48
S'NN'
p85
tp86
a(S'am'
p87
S'VBP'
p88
tp89
a(S'sweating'
p90
S'VBG'
p91
tp92
aa(lp93
(g48
S'NN'
p94
tp95
a(S'am'
p96
S'VBP'
p97
tp98
a(S'shivering'
p99
S'VBG'
p100
tp101
aa(lp102
(S'switch'
p103
S'NN'
p104
tp105
a(S'on'
p106
S'IN'
p107
tp108
a(S'the'
p109
S'DT'
p110
tp111
a(S'fan'
p112
g104
tp113
aa(lp114
(S'switch'
p115
S'VB'
p116
tp117
a(S'off'
p118
S'RP'
p119
tp120
a(S'the'
p121
S'DT'
p122
tp123
a(S'fan'
p124
S'NN'
p125
tp126
aa(lp127
(S'it'
p128
S'PRP'
p129
tp130
a(S'is'
p131
S'VBZ'
p132
tp133
a(S'so'
p134
S'RB'
p135
tp136
a(S'dark'
p137
S'JJ'
p138
tp139
aa(lp140
(S'it'
p141
S'PRP'
p142
tp143
a(S'is'
p144
S'VBZ'
p145
tp146
a(S'dark'
p147
S'JJ'
p148
tp149
a(S'in'
p150
S'IN'
p151
tp152
a(S'here'
p153
S'RB'
p154
tp155
aa(lp156
(S'it'
p157
S'PRP'
p158
tp159
a(S'is'
p160
S'VBZ'
p161
tp162
a(S'so'
p163
S'RB'
p164
tp165
a(S'bright'
p166
S'JJ'
p167
tp168
aa(lp169
(g48
S'NN'
p170
tp171
a(S'ca'
p172
S'MD'
p173
tp174
a(S"n't"
p175
S'RB'
p176
tp177
a(S'see'
p178
S'VB'
p179
tp180
a(S'anything'
p181
S'NN'
p182
tp183
aa(lp184
(g48
S'NN'
p185
tp186
a(S'can'
p187
S'MD'
p188
tp189
a(S'not'
p190
S'RB'
p191
tp192
a(S'see'
p193
S'VB'
p194
tp195
aa(lp196
(S'switch'
p197
S'NN'
p198
tp199
a(S'on'
p200
S'IN'
p201
tp202
a(S'the'
p203
S'DT'
p204
tp205
a(S'lights'
p206
S'NNS'
p207
tp208
aa(lp209
(S'switch'
p210
S'VB'
p211
tp212
a(S'off'
p213
S'RP'
p214
tp215
a(S'the'
p216
S'DT'
p217
tp218
a(S'lights'
p219
S'NNS'
p220
tp221
aa(lp222
(S'switch'
p223
S'NN'
p224
tp225
a(S'on'
p226
S'IN'
p227
tp228
a(S'the'
p229
S'DT'
p230
tp231
a(S'light'
p232
g224
tp233
aa(lp234
(S'switch'
p235
S'VB'
p236
tp237
a(S'off'
p238
S'RP'
p239
tp240
a(S'the'
p241
S'DT'
p242
tp243
a(S'light'
p244
S'NN'
p245
tp246
aa(lp247
(S'it'
p248
S'PRP'
p249
tp250
a(S'is'
p251
S'VBZ'
p252
tp253
a(S'gloomy'
p254
S'JJ'
p255
tp256
aa(lp257
(S'it'
p258
S'PRP'
p259
tp260
a(S'is'
p261
S'VBZ'
p262
tp263
a(S'gloomy'
p264
S'JJ'
p265
tp266
a(S'in'
p267
S'IN'
p268
tp269
a(S'here'
p270
S'RB'
p271
tp272
aa(lp273
(S'it'
p274
S'PRP'
p275
tp276
a(S'is'
p277
S'VBZ'
p278
tp279
a(S'so'
p280
S'RB'
p281
tp282
a(S'dull'
p283
S'JJ'
p284
tp285
aa(lp286
(S'show'
p287
S'VB'
p288
tp289
a(S'me'
p290
S'PRP'
p291
tp292
a(S'today'
p293
S'NN'
p294
tp295
a(S"'s"
p296
S'POS'
p297
tp298
a(S'headlines'
p299
S'NNS'
p300
tp301
aa(lp302
(S'show'
p303
S'VB'
p304
tp305
a(S'me'
p306
S'PRP'
p307
tp308
a(S'today'
p309
S'NN'
p310
tp311
a(S"'s"
p312
S'POS'
p313
tp314
a(S'news'
p315
S'NN'
p316
tp317
aa(lp318
(S'read'
p319
S'VB'
p320
tp321
a(S'me'
p322
S'PRP'
p323
tp324
a(S'the'
p325
S'DT'
p326
tp327
a(S'news'
p328
S'NN'
p329
tp330
aa(lp331
(S'read'
p332
S'VB'
p333
tp334
a(S'me'
p335
S'PRP'
p336
tp337
a(S'the'
p338
S'DT'
p339
tp340
a(S'headlines'
p341
S'NNS'
p342
tp343
aa(lp344
(S'write'
p345
S'VB'
p346
tp347
a(S'down'
p348
S'RP'
p349
tp350
a(S'a'
p351
S'DT'
p352
tp353
a(S'note'
p354
S'NN'
p355
tp356
aa(lp357
(S'take'
p358
S'VB'
p359
tp360
a(S'down'
p361
S'RP'
p362
tp363
a(g351
S'DT'
p364
tp365
a(S'note'
p366
S'NN'
p367
tp368
aa(lp369
(S'take'
p370
S'VB'
p371
tp372
a(S'this'
p373
S'DT'
p374
tp375
a(S'down'
p376
S'RP'
p377
tp378
aa(lp379
(S'please'
p380
S'VB'
p381
tp382
a(S'write'
p383
g381
tp384
a(S'this'
p385
S'DT'
p386
tp387
a(S'down'
p388
S'RP'
p389
tp390
aa(lp391
(S'show'
p392
S'VB'
p393
tp394
a(S'me'
p395
S'PRP'
p396
tp397
a(S'today'
p398
S'NN'
p399
tp400
a(S"'s"
p401
S'POS'
p402
tp403
a(S'mails'
p404
S'NNS'
p405
tp406
aa(lp407
(S'show'
p408
S'VB'
p409
tp410
a(S'me'
p411
S'PRP'
p412
tp413
a(S'today'
p414
S'NN'
p415
tp416
a(S"'s"
p417
S'POS'
p418
tp419
a(S'emails'
p420
S'NNS'
p421
tp422
aa(lp423
(S'read'
p424
S'JJ'
p425
tp426
a(S'mail'
p427
S'NN'
p428
tp429
aa(lp430
(S'read'
p431
S'NN'
p432
tp433
a(S'email'
p434
g432
tp435
aa(lp436
(S'read'
p437
S'VB'
p438
tp439
a(S'me'
p440
S'PRP'
p441
tp442
a(S'the'
p443
S'DT'
p444
tp445
a(S'email'
p446
S'NN'
p447
tp448
aa(lp449
(S'send'
p450
S'VB'
p451
tp452
a(S'this'
p453
S'DT'
p454
tp455
a(S'mail'
p456
S'NN'
p457
tp458
aa(lp459
(S'please'
p460
S'VB'
p461
tp462
a(S'send'
p463
g461
tp464
a(S'this'
p465
S'DT'
p466
tp467
a(S'mail'
p468
S'NN'
p469
tp470
aa(lp471
(S'mail'
p472
S'NN'
p473
tp474
a(S'this'
p475
S'DT'
p476
tp477
aa(lp478
(S'please'
p479
S'VB'
p480
tp481
a(S'mail'
p482
S'NN'
p483
tp484
a(S'this'
p485
S'DT'
p486
tp487
aa(lp488
(S'send'
p489
S'VB'
p490
tp491
a(S'this'
p492
S'DT'
p493
tp494
a(S'note'
p495
S'NN'
p496
tp497
aa(lp498
(S'please'
p499
S'VB'
p500
tp501
a(S'send'
p502
g500
tp503
a(S'this'
p504
S'DT'
p505
tp506
a(S'email'
p507
S'NN'
p508
tp509
aa(lp510
(S'send'
p511
S'VB'
p512
tp513
a(S'this'
p514
S'DT'
p515
tp516
a(S'email'
p517
S'NN'
p518
tp519
aa(lp520
(S'please'
p521
S'VB'
p522
tp523
a(S'send'
p524
g522
tp525
a(S'this'
p526
S'DT'
p527
tp528
a(S'note'
p529
S'NN'
p530
tp531
aa(lp532
(S'read'
p533
S'VB'
p534
tp535
a(S'me'
p536
S'PRP'
p537
tp538
a(S'the'
p539
S'DT'
p540
tp541
a(S'note'
p542
S'NN'
p543
tp544
aa(lp545
(S'read'
p546
S'VBN'
p547
tp548
a(S'out'
p549
S'RP'
p550
tp551
a(S'the'
p552
S'DT'
p553
tp554
a(S'note'
p555
S'NN'
p556
tp557
aa(lp558
(S'say'
p559
S'VB'
p560
tp561
a(S'what'
p562
S'WP'
p563
tp564
a(S'is'
p565
S'VBZ'
p566
tp567
a(S'in'
p568
S'IN'
p569
tp570
a(S'the'
p571
S'DT'
p572
tp573
a(S'note'
p574
S'NN'
p575
tp576
aa(lp577
(S'show'
p578
S'VB'
p579
tp580
a(S'me'
p581
S'PRP'
p582
tp583
a(S'the'
p584
S'DT'
p585
tp586
a(S'note'
p587
S'NN'
p588
tp589
aa(lp590
(S'logmein'
p591
S'NN'
p592
tp593
aa(lp594
(S'please'
p595
S'VB'
p596
tp597
a(S'log'
p598
g596
tp599
a(S'me'
p600
S'PRP'
p601
tp602
a(S'in'
p603
S'IN'
p604
tp605
aa(lp606
(S'recognise'
p607
S'VB'
p608
tp609
a(S'me'
p610
S'PRP'
p611
tp612
aa(lp613
(S'detect'
p614
S'VB'
p615
tp616
a(S'my'
p617
S'PRP$'
p618
tp619
a(S'face'
p620
S'NN'
p621
tp622
aa(lp623
(S'open'
p624
S'JJ'
p625
tp626
a(S'my'
p627
S'PRP$'
p628
tp629
a(S'profile'
p630
S'NN'
p631
tp632
aa(lp633
(S'login'
p634
S'NN'
p635
tp636
aa(lp637
(S'detect'
p638
S'VB'
p639
tp640
a(S'me'
p641
S'PRP'
p642
tp643
aa(lp644
(S'play'
p645
S'VB'
p646
tp647
a(g351
S'DT'
p648
tp649
a(S'song'
p650
S'NN'
p651
tp652
aa(lp653
(S'play'
p654
S'VB'
p655
tp656
a(S'me'
p657
S'PRP'
p658
tp659
a(g351
S'DT'
p660
tp661
a(S'song'
p662
S'NN'
p663
tp664
aa(lp665
(S'play'
p666
S'VB'
p667
tp668
a(S'me'
p669
S'PRP'
p670
tp671
a(S'some'
p672
S'DT'
p673
tp674
a(S'music'
p675
S'NN'
p676
tp677
aa(lp678
(S'please'
p679
S'NN'
p680
tp681
a(S'lighten'
p682
S'VBZ'
p683
tp684
a(S'up'
p685
S'RP'
p686
tp687
a(S'my'
p688
S'PRP$'
p689
tp690
a(S'mood'
p691
g680
tp692
aa(lp693
(S'play'
p694
S'VB'
p695
tp696
a(S'some'
p697
S'DT'
p698
tp699
a(S'good'
p700
S'JJ'
p701
tp702
a(S'music'
p703
S'NN'
p704
tp705
aa(lp706
(S'play'
p707
S'VB'
p708
tp709
a(S'my'
p710
S'PRP$'
p711
tp712
a(S'favourites'
p713
S'NNS'
p714
tp715
aa(lp716
(S'list'
p717
S'NN'
p718
tp719
a(S'all'
p720
S'PDT'
p721
tp722
a(S'the'
p723
S'DT'
p724
tp725
a(S'songs'
p726
S'NNS'
p727
tp728
aa(lp729
(S'show'
p730
S'VB'
p731
tp732
a(S'me'
p733
S'PRP'
p734
tp735
a(S'all'
p736
S'PDT'
p737
tp738
a(S'the'
p739
S'DT'
p740
tp741
a(S'songs'
p742
S'NNS'
p743
tp744
aa(lp745
(S'songs'
p746
S'NNS'
p747
tp748
aa(lp749
(S'goodbye'
p750
S'NN'
p751
tp752
aa(lp753
(S'see'
p754
S'VB'
p755
tp756
a(S'you'
p757
S'PRP'
p758
tp759
a(S'later'
p760
S'RB'
p761
tp762
aa(lp763
(S'see'
p764
S'VB'
p765
tp766
a(S'you'
p767
S'PRP'
p768
tp769
a(S'tomorrow'
p770
S'NN'
p771
tp772
aa(lp773
(S'bye'
p774
S'NN'
p775
tp776
aa(lp777
(S'show'
p778
S'VB'
p779
tp780
a(S'me'
p781
S'PRP'
p782
tp783
a(S'who'
p784
S'WP'
p785
tp786
a(S'is'
p787
S'VBZ'
p788
tp789
a(S'outside'
p790
S'JJ'
p791
tp792
aa(lp793
(S'show'
p794
S'VB'
p795
tp796
a(S'me'
p797
S'PRP'
p798
tp799
a(S'who'
p800
S'WP'
p801
tp802
a(S'is'
p803
S'VBZ'
p804
tp805
a(S'at'
p806
S'IN'
p807
tp808
a(S'the'
p809
S'DT'
p810
tp811
a(S'door'
p812
S'NN'
p813
tp814
aa(lp815
(S'show'
p816
S'VB'
p817
tp818
a(S'me'
p819
S'PRP'
p820
tp821
a(S'who'
p822
S'WP'
p823
tp824
a(S'is'
p825
S'VBZ'
p826
tp827
a(S'knocking'
p828
S'VBG'
p829
tp830
a(S'the'
p831
S'DT'
p832
tp833
a(S'door'
p834
S'NN'
p835
tp836
aa(lp837
(S'open'
p838
S'VB'
p839
tp840
a(S'the'
p841
S'DT'
p842
tp843
a(S'door'
p844
S'NN'
p845
tp846
aa(lp847
(S'please'
p848
S'VB'
p849
tp850
a(S'come'
p851
g849
tp852
a(S'in'
p853
S'IN'
p854
tp855
aa(lp856
(S'unlock'
p857
S'RB'
p858
tp859
a(S'the'
p860
S'DT'
p861
tp862
a(S'door'
p863
S'NN'
p864
tp865
aa(lp866
(S'please'
p867
S'NN'
p868
tp869
a(S'unlock'
p870
S'VB'
p871
tp872
a(S'the'
p873
S'DT'
p874
tp875
a(S'door'
p876
g868
tp877
aa(lp878
(S'let'
p879
S'VB'
p880
tp881
a(S'him'
p882
S'PRP'
p883
tp884
a(S'pass'
p885
g880
tp886
a(S'throught'
p887
S'VBD'
p888
tp889
a(S'the'
p890
S'DT'
p891
tp892
a(S'door'
p893
S'NN'
p894
tp895
aa(lp896
(S'let'
p897
S'VB'
p898
tp899
a(S'him'
p900
S'PRP'
p901
tp902
a(S'come'
p903
g898
tp904
a(S'in'
p905
S'IN'
p906
tp907
aa(lp908
(S'please'
p909
S'NN'
p910
tp911
a(S'lock'
p912
S'VBZ'
p913
tp914
a(S'the'
p915
S'DT'
p916
tp917
a(S'door'
p918
g910
tp919
aa(lp920
(S'lock'
p921
S'VB'
p922
tp923
a(S'the'
p924
S'DT'
p925
tp926
a(S'door'
p927
S'NN'
p928
tp929
aa(lp930
(S'close'
p931
S'RB'
p932
tp933
a(S'the'
p934
S'DT'
p935
tp936
a(S'door'
p937
S'NN'
p938
tp939
aa(lp940
(S'do'
p941
S'VBP'
p942
tp943
a(S"n't"
p944
S'RB'
p945
tp946
a(S'let'
p947
S'VB'
p948
tp949
a(S'anyone'
p950
S'NN'
p951
tp952
a(S'in'
p953
S'IN'
p954
tp955
aa(lp956
(S'keep'
p957
S'VB'
p958
tp959
a(S'him'
p960
S'PRP'
p961
tp962
a(S'outside'
p963
S'JJ'
p964
tp965
aa(lp966
(S'hello'
p967
S'NN'
p968
tp969
aa(lp970
(S'good'
p971
S'JJ'
p972
tp973
a(S'morning'
p974
S'NN'
p975
tp976
aa(lp977
(S'hey'
p978
S'NN'
p979
tp980
aa(lp981
(S'copy'
p982
S'NN'
p983
tp984
a(S'this'
p985
S'DT'
p986
tp987
a(S'document'
p988
g983
tp989
aa(lp990
(S'capture'
p991
S'NN'
p992
tp993
a(S'this'
p994
S'DT'
p995
tp996
a(S'document'
p997
g992
tp998
aa(lp999
(S'convert'
p1000
S'NN'
p1001
tp1002
a(S'this'
p1003
S'DT'
p1004
tp1005
a(S'document'
p1006
g1001
tp1007
a(S'to'
p1008
S'TO'
p1009
tp1010
a(S'note'
p1011
S'VB'
p1012
tp1013
aa(lp1014
(S'please'
p1015
S'VB'
p1016
tp1017
a(S'copy'
p1018
S'NN'
p1019
tp1020
a(S'this'
p1021
S'DT'
p1022
tp1023
a(S'document'
p1024
g1019
tp1025
aa(lp1026
(S'please'
p1027
S'VB'
p1028
tp1029
a(S'capture'
p1030
S'NN'
p1031
tp1032
a(S'this'
p1033
S'DT'
p1034
tp1035
a(S'document'
p1036
g1031
tp1037
aa(lp1038
(S'please'
p1039
S'VB'
p1040
tp1041
a(S'convert'
p1042
g1040
tp1043
a(S'this'
p1044
S'DT'
p1045
tp1046
a(S'document'
p1047
S'NN'
p1048
tp1049
a(S'to'
p1050
S'TO'
p1051
tp1052
a(S'note'
p1053
g1040
tp1054
aa(lp1055
S'fan ON'
p1056
aS'fan OFF'
p1057
aS'fan ON'
p1058
aS'fan OFF'
p1059
aS'fan ON'
p1060
aS'fan OFF'
p1061
aS'fan ON'
p1062
aS'fan OFF'
p1063
aS'fan ON'
p1064
aS'fan OFF'
p1065
aS'fan ON'
p1066
aS'fan OFF'
p1067
aS'light ON'
p1068
aS'light ON'
p1069
aS'light OFF'
p1070
aS'light ON'
p1071
aS'light ON'
p1072
aS'light ON'
p1073
aS'light OFF'
p1074
aS'light ON'
p1075
aS'light OFF'
p1076
aS'light ON'
p1077
aS'light ON'
p1078
aS'light ON'
p1079
aS'news'
p1080
aS'news'
p1081
aS'news'
p1082
aS'news'
p1083
aS'note'
p1084
aS'note'
p1085
aS'note'
p1086
aS'note'
p1087
aS'Email'
p1088
aS'Email'
p1089
aS'Email'
p1090
aS'Email'
p1091
aS'Email'
p1092
aS'mailer'
p1093
aS'mailer'
p1094
aS'mailer'
p1095
aS'mailer'
p1096
aS'mailer'
p1097
aS'mailer'
p1098
aS'mailer'
p1099
aS'mailer'
p1100
aS'Rnote'
p1101
aS'Rnote'
p1102
aS'Rnote'
p1103
aS'Rnote'
p1104
aS'Login'
p1105
aS'Login'
p1106
aS'Login'
p1107
aS'Login'
p1108
aS'Login'
p1109
aS'Login'
p1110
aS'Login'
p1111
aS'song '
p1112
aS'song'
p1113
aS'song'
p1114
aS'song'
p1115
aS'song'
p1116
aS'song'
p1117
aS'song'
p1118
aS'song'
p1119
aS'song'
p1120
aS'goodbye'
p1121
aS'goodbye'
p1122
aS'goodbye'
p1123
aS'goodbye'
p1124
aS'camera'
p1125
aS'camera'
p1126
aS'camera'
p1127
aS'unlock'
p1128
aS'unlock'
p1129
aS'unlock'
p1130
aS'unlock'
p1131
aS'unlock'
p1132
aS'unlock'
p1133
aS'lock'
p1134
aS'lock'
p1135
aS'lock'
p1136
aS'lock'
p1137
aS'lock'
p1138
aS'greetings'
p1139
aS'greetings'
p1140
aS'greetings'
p1141
aS'ocr'
p1142
aS'ocr'
p1143
aS'ocr'
p1144
aS'ocr'
p1145
aS'ocr'
p1146
aS'ocr'
p1147
atp1148
.